target datalayout = "e-m:e-p270:32:32-p271:32:32-p272:64:64-i64:64-i128:128-f80:128-n8:16:32:64-S128"
target triple = "x86_64-pc-linux-gnu"

%"struct.base::SharedMemoryCreateOptions" = type <{ ptr, i8, [7 x i8], i64, i8, i8, [6 x i8] }>
%"class.base::SharedMemory" = type { i32, i32, i64, ptr, i8, i64 }
%"class.logging::LogMessage" = type <{ i32, [4 x i8], %"class.std::__cxx11::basic_ostringstream", i64, ptr, i32, [4 x i8] }>
%"class.std::__cxx11::basic_ostringstream" = type { %"class.std::basic_ostream.base", %"class.std::__cxx11::basic_stringbuf", %"class.std::basic_ios" }
%"class.std::basic_ostream.base" = type { ptr }
%"class.std::__cxx11::basic_stringbuf" = type { %"class.std::basic_streambuf", i32, %"class.std::__cxx11::basic_string" }
%"class.std::basic_streambuf" = type { ptr, ptr, ptr, ptr, ptr, ptr, ptr, %"class.std::locale" }
%"class.std::locale" = type { ptr }
%"class.std::__cxx11::basic_string" = type { %"struct.std::__cxx11::basic_string<char>::_Alloc_hider", i64, %union.anon }
%"struct.std::__cxx11::basic_string<char>::_Alloc_hider" = type { ptr }
%union.anon = type { i64, [8 x i8] }
%"class.std::basic_ios" = type { %"class.std::ios_base", ptr, i8, i8, ptr, ptr, ptr, ptr }
%"class.std::ios_base" = type { ptr, i64, i64, i32, i32, i32, ptr, %"struct.std::ios_base::_Words", [8 x %"struct.std::ios_base::_Words"], i32, ptr, %"class.std::locale" }
%"struct.std::ios_base::_Words" = type { ptr, i64 }
%"class.logging::CheckOpResult" = type { ptr }

@.str = private unnamed_addr constant [132 x i8] c"generated/home/dtcxzyw/WorkSpace/Projects/compilers/llvm-opt-benchmark/bench/libquic/libquic/src/base/memory/shared_memory_posix.cc\00", align 1
@_ZN4base25SharedMemoryCreateOptionsC1Ev = unnamed_addr alias void (ptr), ptr @_ZN4base25SharedMemoryCreateOptionsC2Ev

; Function Attrs: mustprogress nounwind uwtable
define linkonce_odr noundef nonnull align 8 dereferenceable(8) ptr @_ZN7logging10LogMessage6streamEv(ptr noundef nonnull align 8 dereferenceable(404) %0) #0 comdat align 2 {
  %2 = alloca ptr, align 8
  store ptr %0, ptr %2, align 8, !tbaa !41
  %3 = load ptr, ptr %2, align 8
  %4 = getelementptr inbounds nuw %"class.logging::LogMessage", ptr %3, i32 0, i32 2
  ret ptr %4
}

; Function Attrs: mustprogress nounwind uwtable
define linkonce_odr noundef ptr @_ZN7logging13CheckOpResult7messageB5cxx11Ev(ptr noundef nonnull align 8 dereferenceable(8) %0) #0 comdat align 2 {
  %2 = alloca ptr, align 8
  store ptr %0, ptr %2, align 8, !tbaa !36
  %3 = load ptr, ptr %2, align 8
  %4 = getelementptr inbounds nuw %"class.logging::CheckOpResult", ptr %3, i32 0, i32 0
  %5 = load ptr, ptr %4, align 8, !tbaa !39
  ret ptr %5
}

; Function Attrs: mustprogress nounwind uwtable
define linkonce_odr noundef zeroext i1 @_ZNK7logging13CheckOpResultcvbEv(ptr noundef nonnull align 8 dereferenceable(8) %0) #0 comdat align 2 {
  %2 = alloca ptr, align 8
  store ptr %0, ptr %2, align 8, !tbaa !36
  %3 = load ptr, ptr %2, align 8
  %4 = getelementptr inbounds nuw %"class.logging::CheckOpResult", ptr %3, i32 0, i32 0
  %5 = load ptr, ptr %4, align 8, !tbaa !39
  %6 = icmp ne ptr %5, null
  %7 = xor i1 %6, true
  ret i1 %7
}

; Function Attrs: mustprogress nounwind uwtable
define linkonce_odr void @_ZN7logging13CheckOpResultC2EPNSt7__cxx1112basic_stringIcSt11char_traitsIcESaIcEEE(ptr noundef nonnull align 8 dereferenceable(8) %0, ptr noundef %1) unnamed_addr #0 comdat align 2 {
  %3 = alloca ptr, align 8
  %4 = alloca ptr, align 8
  store ptr %0, ptr %3, align 8, !tbaa !36
  store ptr %1, ptr %4, align 8, !tbaa !38
  %5 = load ptr, ptr %3, align 8
  %6 = getelementptr inbounds nuw %"class.logging::CheckOpResult", ptr %5, i32 0, i32 0
  %7 = load ptr, ptr %4, align 8, !tbaa !38
  store ptr %7, ptr %6, align 8, !tbaa !39
  ret void
}

; Function Attrs: mustprogress nounwind uwtable
define linkonce_odr noundef i32 @_ZNSt14numeric_limitsIiE3maxEv() #0 comdat align 2 {
  ret i32 2147483647
}

; Function Attrs: mustprogress uwtable
define noundef zeroext i1 @_ZN4base12SharedMemory5MapAtElm(ptr noundef nonnull align 8 dereferenceable(40) %0, i64 noundef %1, i64 noundef %2) #2 align 2 personality ptr @__gxx_personality_v0 {
  %4 = alloca i1, align 1
  %5 = alloca ptr, align 8
  %6 = alloca i64, align 8
  %7 = alloca i64, align 8
  %8 = alloca i8, align 1
  %9 = alloca %"class.logging::CheckOpResult", align 8
  %10 = alloca %"class.logging::LogMessage", align 8
  %11 = alloca ptr, align 8
  %12 = alloca i32, align 4
  store ptr %0, ptr %5, align 8, !tbaa !17
  store i64 %1, ptr %6, align 8, !tbaa !45
  store i64 %2, ptr %7, align 8, !tbaa !45
  %13 = load ptr, ptr %5, align 8
  %14 = getelementptr inbounds nuw %"class.base::SharedMemory", ptr %13, i32 0, i32 0
  %15 = load i32, ptr %14, align 8, !tbaa !19
  %16 = icmp eq i32 %15, -1
  br i1 %16, label %17, label %18

17:                                               ; preds = %3
  store i1 false, ptr %4, align 1
  br label %72

18:                                               ; preds = %3
  %19 = load i64, ptr %7, align 8, !tbaa !45
  %20 = call noundef i32 @_ZNSt14numeric_limitsIiE3maxEv() #16
  %21 = sext i32 %20 to i64
  %22 = icmp ugt i64 %19, %21
  br i1 %22, label %23, label %24

23:                                               ; preds = %18
  store i1 false, ptr %4, align 1
  br label %72

24:                                               ; preds = %18
  %25 = getelementptr inbounds nuw %"class.base::SharedMemory", ptr %13, i32 0, i32 3
  %26 = load ptr, ptr %25, align 8, !tbaa !24
  %27 = icmp ne ptr %26, null
  br i1 %27, label %28, label %29

28:                                               ; preds = %24
  store i1 false, ptr %4, align 1
  br label %72

29:                                               ; preds = %24
  %30 = load i64, ptr %7, align 8, !tbaa !45
  %31 = getelementptr inbounds nuw %"class.base::SharedMemory", ptr %13, i32 0, i32 4
  %32 = load i8, ptr %31, align 8, !tbaa !25, !range !32, !noundef !33
  %33 = trunc i8 %32 to i1
  %34 = select i1 %33, i32 0, i32 2
  %35 = or i32 1, %34
  %36 = getelementptr inbounds nuw %"class.base::SharedMemory", ptr %13, i32 0, i32 0
  %37 = load i32, ptr %36, align 8, !tbaa !19
  %38 = load i64, ptr %6, align 8, !tbaa !45
  %39 = call ptr @mmap(ptr noundef null, i64 noundef %30, i32 noundef %35, i32 noundef 1, i32 noundef %37, i64 noundef %38) #16
  %40 = getelementptr inbounds nuw %"class.base::SharedMemory", ptr %13, i32 0, i32 3
  store ptr %39, ptr %40, align 8, !tbaa !24
  call void @llvm.lifetime.start.p0(i64 1, ptr %8) #16
  %41 = getelementptr inbounds nuw %"class.base::SharedMemory", ptr %13, i32 0, i32 3
  %42 = load ptr, ptr %41, align 8, !tbaa !24
  %43 = icmp ne ptr %42, inttoptr (i64 -1 to ptr)
  br i1 %43, label %44, label %48

44:                                               ; preds = %29
  %45 = getelementptr inbounds nuw %"class.base::SharedMemory", ptr %13, i32 0, i32 3
  %46 = load ptr, ptr %45, align 8, !tbaa !24
  %47 = icmp ne ptr %46, null
  br label %48

48:                                               ; preds = %44, %29
  %49 = phi i1 [ false, %29 ], [ %47, %44 ]
  %50 = zext i1 %49 to i8
  store i8 %50, ptr %8, align 1, !tbaa !29
  %51 = load i8, ptr %8, align 1, !tbaa !29, !range !32, !noundef !33
  %52 = trunc i8 %51 to i1
  br i1 %52, label %53, label %67

53:                                               ; preds = %48
  %54 = load i64, ptr %7, align 8, !tbaa !45
  %55 = getelementptr inbounds nuw %"class.base::SharedMemory", ptr %13, i32 0, i32 2
  store i64 %54, ptr %55, align 8, !tbaa !23
  call void @llvm.lifetime.start.p0(i64 8, ptr %9) #16
  call void @_ZN7logging13CheckOpResultC2EPNSt7__cxx1112basic_stringIcSt11char_traitsIcESaIcEEE(ptr noundef nonnull align 8 dereferenceable(8) %9, ptr noundef null)
  %56 = call noundef zeroext i1 @_ZNK7logging13CheckOpResultcvbEv(ptr noundef nonnull align 8 dereferenceable(8) %9)
  br i1 %56, label %57, label %58

57:                                               ; preds = %53
  br label %66

58:                                               ; preds = %53
  call void @llvm.lifetime.start.p0(i64 408, ptr %10) #16
  %59 = call noundef ptr @_ZN7logging13CheckOpResult7messageB5cxx11Ev(ptr noundef nonnull align 8 dereferenceable(8) %9)
  call void @_ZN7logging10LogMessageC1EPKciiPNSt7__cxx1112basic_stringIcSt11char_traitsIcESaIcEEE(ptr noundef nonnull align 8 dereferenceable(404) %10, ptr noundef @.str, i32 noundef 379, i32 noundef 0, ptr noundef %59)
  %60 = invoke noundef nonnull align 8 dereferenceable(8) ptr @_ZN7logging10LogMessage6streamEv(ptr noundef nonnull align 8 dereferenceable(404) %10)
          to label %61 unwind label %62

61:                                               ; preds = %58
  call void @_ZN7logging10LogMessageD1Ev(ptr noundef nonnull align 8 dereferenceable(404) %10) #16
  call void @llvm.lifetime.end.p0(i64 408, ptr %10) #16
  br label %66

62:                                               ; preds = %58
  %63 = landingpad { ptr, i32 }
          cleanup
  %64 = extractvalue { ptr, i32 } %63, 0
  store ptr %64, ptr %11, align 8
  %65 = extractvalue { ptr, i32 } %63, 1
  store i32 %65, ptr %12, align 4
  call void @_ZN7logging10LogMessageD1Ev(ptr noundef nonnull align 8 dereferenceable(404) %10) #16
  call void @llvm.lifetime.end.p0(i64 408, ptr %10) #16
  call void @llvm.lifetime.end.p0(i64 8, ptr %9) #16
  call void @llvm.lifetime.end.p0(i64 1, ptr %8) #16
  br label %74

66:                                               ; preds = %61, %57
  call void @llvm.lifetime.end.p0(i64 8, ptr %9) #16
  br label %69

67:                                               ; preds = %48
  %68 = getelementptr inbounds nuw %"class.base::SharedMemory", ptr %13, i32 0, i32 3
  store ptr null, ptr %68, align 8, !tbaa !24
  br label %69

69:                                               ; preds = %67, %66
  %70 = load i8, ptr %8, align 1, !tbaa !29, !range !32, !noundef !33
  %71 = trunc i8 %70 to i1
  store i1 %71, ptr %4, align 1
  call void @llvm.lifetime.end.p0(i64 1, ptr %8) #16
  br label %72

72:                                               ; preds = %69, %28, %23, %17
  %73 = load i1, ptr %4, align 1
  ret i1 %73

74:                                               ; preds = %62
  %75 = load ptr, ptr %11, align 8
  %76 = load i32, ptr %12, align 4
  %77 = insertvalue { ptr, i32 } poison, ptr %75, 0
  %78 = insertvalue { ptr, i32 } %77, i32 %76, 1
  resume { ptr, i32 } %78
}

; Function Attrs: mustprogress uwtable
define linkonce_odr noundef zeroext i1 @_ZN4base12SharedMemory3MapEm(ptr noundef nonnull align 8 dereferenceable(40) %0, i64 noundef %1) #2 comdat align 2 {
  %3 = alloca ptr, align 8
  %4 = alloca i64, align 8
  store ptr %0, ptr %3, align 8, !tbaa !17
  store i64 %1, ptr %4, align 8, !tbaa !45
  %5 = load ptr, ptr %3, align 8
  %6 = load i64, ptr %4, align 8, !tbaa !45
  %7 = call noundef zeroext i1 @_ZN4base12SharedMemory5MapAtElm(ptr noundef nonnull align 8 dereferenceable(40) %5, i64 noundef 0, i64 noundef %6)
  ret i1 %7
}

; Function Attrs: mustprogress uwtable
define linkonce_odr noundef zeroext i1 @_ZN4base12SharedMemory15CreateAnonymousEm(ptr noundef nonnull align 8 dereferenceable(40) %0, i64 noundef %1) #2 comdat align 2 {
  %3 = alloca ptr, align 8
  %4 = alloca i64, align 8
  %5 = alloca %"struct.base::SharedMemoryCreateOptions", align 8
  store ptr %0, ptr %3, align 8, !tbaa !17
  store i64 %1, ptr %4, align 8, !tbaa !45
  %6 = load ptr, ptr %3, align 8
  call void @llvm.lifetime.start.p0(i64 32, ptr %5) #16
  call void @_ZN4base25SharedMemoryCreateOptionsC1Ev(ptr noundef nonnull align 8 dereferenceable(26) %5)
  %7 = load i64, ptr %4, align 8, !tbaa !45
  %8 = getelementptr inbounds nuw %"struct.base::SharedMemoryCreateOptions", ptr %5, i32 0, i32 3
  store i64 %7, ptr %8, align 8, !tbaa !14
  %9 = call noundef zeroext i1 @_ZN4base12SharedMemory6CreateERKNS_25SharedMemoryCreateOptionsE(ptr noundef nonnull align 8 dereferenceable(40) %6, ptr noundef nonnull align 8 dereferenceable(26) %5)
  call void @llvm.lifetime.end.p0(i64 32, ptr %5) #16
  ret i1 %9
}

; Function Attrs: mustprogress uwtable
define noundef zeroext i1 @_ZN4base12SharedMemory21CreateAndMapAnonymousEm(ptr noundef nonnull align 8 dereferenceable(40) %0, i64 noundef %1) #2 align 2 {
  %3 = alloca ptr, align 8
  %4 = alloca i64, align 8
  store ptr %0, ptr %3, align 8, !tbaa !17
  store i64 %1, ptr %4, align 8, !tbaa !45
  %5 = load ptr, ptr %3, align 8
  %6 = load i64, ptr %4, align 8, !tbaa !45
  %7 = call noundef zeroext i1 @_ZN4base12SharedMemory15CreateAnonymousEm(ptr noundef nonnull align 8 dereferenceable(40) %5, i64 noundef %6)
  br i1 %7, label %8, label %11

8:                                                ; preds = %2
  %9 = load i64, ptr %4, align 8, !tbaa !45
  %10 = call noundef zeroext i1 @_ZN4base12SharedMemory3MapEm(ptr noundef nonnull align 8 dereferenceable(40) %5, i64 noundef %9)
  br label %11

11:                                               ; preds = %8, %2
  %12 = phi i1 [ false, %2 ], [ %10, %8 ]
  ret i1 %12
}