; Function Attrs: mustprogress uwtable
define noundef zeroext i1 @_ZN4base12SharedMemory21CreateAndMapAnonymousEm(ptr noundef nonnull align 8 captures(none) dereferenceable(40) %0, i64 noundef %1) local_unnamed_addr #5 align 2 personality ptr @__gxx_personality_v0 {
  %3 = alloca %"struct.base::SharedMemoryCreateOptions", align 8
  call void @llvm.lifetime.start.p0(i64 32, ptr nonnull %3) #22
  call void @_ZN4base25SharedMemoryCreateOptionsC1Ev(ptr noundef nonnull align 8 dereferenceable(26) %3)
  %4 = getelementptr inbounds nuw i8, ptr %3, i64 16
  store i64 %1, ptr %4, align 8, !tbaa !12
  %5 = call noundef zeroext i1 @_ZN4base12SharedMemory6CreateERKNS_25SharedMemoryCreateOptionsE(ptr noundef nonnull align 8 dereferenceable(40) %0, ptr noundef nonnull align 8 dereferenceable(26) %3)
  call void @llvm.lifetime.end.p0(i64 32, ptr nonnull %3) #22
  br i1 %5, label %6, label %_ZN4base12SharedMemory3MapEm.exit

6:                                                ; preds = %2
  %7 = load i32, ptr %0, align 8, !tbaa !15
  %8 = icmp eq i32 %7, -1
  %9 = icmp ugt i64 %1, 2147483647
  %or.cond.i.i = or i1 %9, %8
  br i1 %or.cond.i.i, label %_ZN4base12SharedMemory3MapEm.exit, label %10

10:                                               ; preds = %6
  %11 = getelementptr inbounds nuw i8, ptr %0, i64 16
  %12 = load ptr, ptr %11, align 8, !tbaa !23
  %.not.i.i = icmp eq ptr %12, null
  br i1 %.not.i.i, label %13, label %_ZN4base12SharedMemory3MapEm.exit

13:                                               ; preds = %10
  %14 = getelementptr inbounds nuw i8, ptr %0, i64 24
  %15 = load i8, ptr %14, align 8, !tbaa !22, !range !28, !noundef !29
  %16 = trunc nuw i8 %15 to i1
  %17 = select i1 %16, i32 1, i32 3
  %18 = call ptr @mmap(ptr noundef null, i64 noundef %1, i32 noundef %17, i32 noundef 1, i32 noundef %7, i64 noundef 0) #22
  store ptr %18, ptr %11, align 8, !tbaa !23
  %magicptr.i.i = ptrtoint ptr %18 to i64
  switch i64 %magicptr.i.i, label %19 [
    i64 -1, label %21
    i64 0, label %21
  ]

19:                                               ; preds = %13
  %20 = getelementptr inbounds nuw i8, ptr %0, i64 8
  store i64 %1, ptr %20, align 8, !tbaa !24
  br label %_ZN4base12SharedMemory3MapEm.exit

21:                                               ; preds = %13, %13
  store ptr null, ptr %11, align 8, !tbaa !23
  br label %_ZN4base12SharedMemory3MapEm.exit

_ZN4base12SharedMemory3MapEm.exit:                ; preds = %21, %19, %10, %6, %2
  %22 = phi i1 [ false, %2 ], [ false, %6 ], [ false, %10 ], [ false, %21 ], [ true, %19 ]
  ret i1 %22
}